libkodiplatform.so.18.0:_Z12IsUTF8LetterPKh
libkodiplatform.so.18.0:_Z12compareWcharPKvS0_
libkodiplatform.so.18.0:_Z14tolowerUnicodeRKw
libkodiplatform.so.18.0:_Z14toupperUnicodeRKw
libkodiplatform.so.18.0:_ZN11StringUtils10CreateUUIDB5cxx11Ev
libkodiplatform.so.18.0:_ZN11StringUtils10FindNumberERKNSt7__cxx1112basic_stringIcSt11char_traitsIcESaIcEEES7_
libkodiplatform.so.18.0:_ZN11StringUtils10RemoveCRLFERNSt7__cxx1112basic_stringIcSt11char_traitsIcESaIcEEE
libkodiplatform.so.18.0:_ZN11StringUtils10StartsWithEPKcS1_
libkodiplatform.so.18.0:_ZN11StringUtils10StartsWithERKNSt7__cxx1112basic_stringIcSt11char_traitsIcESaIcEEEPKc
libkodiplatform.so.18.0:_ZN11StringUtils10StartsWithERKNSt7__cxx1112basic_stringIcSt11char_traitsIcESaIcEEES7_
libkodiplatform.so.18.0:_ZN11StringUtils11utf8_strlenEPKc
libkodiplatform.so.18.0:_ZN11StringUtils12EqualsNoCaseEPKcS1_
libkodiplatform.so.18.0:_ZN11StringUtils12EqualsNoCaseERKNSt7__cxx1112basic_stringIcSt11char_traitsIcESaIcEEEPKc
libkodiplatform.so.18.0:_ZN11StringUtils12EqualsNoCaseERKNSt7__cxx1112basic_stringIcSt11char_traitsIcESaIcEEES7_
libkodiplatform.so.18.0:_ZN11StringUtils12SizeToStringB5cxx11El
libkodiplatform.so.18.0:_ZN11StringUtils12WordToDigitsERNSt7__cxx1112basic_stringIcSt11char_traitsIcESaIcEEE
libkodiplatform.so.18.0:_ZN11StringUtils13CompareNoCaseEPKcS1_
libkodiplatform.so.18.0:_ZN11StringUtils13CompareNoCaseERKNSt7__cxx1112basic_stringIcSt11char_traitsIcESaIcEEES7_
libkodiplatform.so.18.0:_ZN11StringUtils14EndsWithNoCaseERKNSt7__cxx1112basic_stringIcSt11char_traitsIcESaIcEEEPKc
libkodiplatform.so.18.0:_ZN11StringUtils14EndsWithNoCaseERKNSt7__cxx1112basic_stringIcSt11char_traitsIcESaIcEEES7_
libkodiplatform.so.18.0:_ZN11StringUtils14FindEndBracketERKNSt7__cxx1112basic_stringIcSt11char_traitsIcESaIcEEEcci
libkodiplatform.so.18.0:_ZN11StringUtils15ContainsKeywordERKNSt7__cxx1112basic_stringIcSt11char_traitsIcESaIcEEERKSt6vectorIS5_SaIS5_EE
libkodiplatform.so.18.0:_ZN11StringUtils15IsNaturalNumberERKNSt7__cxx1112basic_stringIcSt11char_traitsIcESaIcEEE
libkodiplatform.so.18.0:_ZN11StringUtils15asciidigitvalueEc
libkodiplatform.so.18.0:_ZN11StringUtils16StartsWithNoCaseEPKcS1_
libkodiplatform.so.18.0:_ZN11StringUtils16StartsWithNoCaseERKNSt7__cxx1112basic_stringIcSt11char_traitsIcESaIcEEEPKc
libkodiplatform.so.18.0:_ZN11StringUtils16StartsWithNoCaseERKNSt7__cxx1112basic_stringIcSt11char_traitsIcESaIcEEES7_
libkodiplatform.so.18.0:_ZN11StringUtils16asciixdigitvalueEc
libkodiplatform.so.18.0:_ZN11StringUtils19AlphaNumericCompareEPKwS1_
libkodiplatform.so.18.0:_ZN11StringUtils19SecondsToTimeStringB5cxx11El11TIME_FORMAT
libkodiplatform.so.18.0:_ZN11StringUtils19TimeStringToSecondsERKNSt7__cxx1112basic_stringIcSt11char_traitsIcESaIcEEE
libkodiplatform.so.18.0:_ZN11StringUtils20DateStringToYYYYMMDDERKNSt7__cxx1112basic_stringIcSt11char_traitsIcESaIcEEE
libkodiplatform.so.18.0:_ZN11StringUtils29RemoveDuplicatedSpacesAndTabsERNSt7__cxx1112basic_stringIcSt11char_traitsIcESaIcEEE
libkodiplatform.so.18.0:_ZN11StringUtils3MidERKNSt7__cxx1112basic_stringIcSt11char_traitsIcESaIcEEEmm
libkodiplatform.so.18.0:_ZN11StringUtils4JoinERKSt6vectorINSt7__cxx1112basic_stringIcSt11char_traitsIcESaIcEEESaIS6_EERKS6_
libkodiplatform.so.18.0:_ZN11StringUtils4LeftERKNSt7__cxx1112basic_stringIcSt11char_traitsIcESaIcEEEm
libkodiplatform.so.18.0:_ZN11StringUtils4TrimERNSt7__cxx1112basic_stringIcSt11char_traitsIcESaIcEEE
libkodiplatform.so.18.0:_ZN11StringUtils4TrimERNSt7__cxx1112basic_stringIcSt11char_traitsIcESaIcEEEPKc
libkodiplatform.so.18.0:_ZN11StringUtils5RightERKNSt7__cxx1112basic_stringIcSt11char_traitsIcESaIcEEEm
libkodiplatform.so.18.0:_ZN11StringUtils5SplitERKNSt7__cxx1112basic_stringIcSt11char_traitsIcESaIcEEES7_j
libkodiplatform.so.18.0:_ZN11StringUtils6FormatB5cxx11EPKcz
libkodiplatform.so.18.0:_ZN11StringUtils6FormatB5cxx11EPKwz
libkodiplatform.so.18.0:_ZN11StringUtils7FormatVB5cxx11EPKcP13__va_list_tag
libkodiplatform.so.18.0:_ZN11StringUtils7FormatVB5cxx11EPKwP13__va_list_tag
libkodiplatform.so.18.0:_ZN11StringUtils7ReplaceERNSt7__cxx1112basic_stringIcSt11char_traitsIcESaIcEEERKS5_S8_
libkodiplatform.so.18.0:_ZN11StringUtils7ReplaceERNSt7__cxx1112basic_stringIcSt11char_traitsIcESaIcEEEcc
libkodiplatform.so.18.0:_ZN11StringUtils7ReplaceERNSt7__cxx1112basic_stringIwSt11char_traitsIwESaIwEEERKS5_S8_
libkodiplatform.so.18.0:_ZN11StringUtils7ToLowerERNSt7__cxx1112basic_stringIcSt11char_traitsIcESaIcEEE
libkodiplatform.so.18.0:_ZN11StringUtils7ToLowerERNSt7__cxx1112basic_stringIwSt11char_traitsIwESaIwEEE
libkodiplatform.so.18.0:_ZN11StringUtils7ToUpperERNSt7__cxx1112basic_stringIcSt11char_traitsIcESaIcEEE
libkodiplatform.so.18.0:_ZN11StringUtils7ToUpperERNSt7__cxx1112basic_stringIwSt11char_traitsIwESaIwEEE
libkodiplatform.so.18.0:_ZN11StringUtils8EndsWithERKNSt7__cxx1112basic_stringIcSt11char_traitsIcESaIcEEEPKc
libkodiplatform.so.18.0:_ZN11StringUtils8EndsWithERKNSt7__cxx1112basic_stringIcSt11char_traitsIcESaIcEEES7_
libkodiplatform.so.18.0:_ZN11StringUtils8ParamifyERKNSt7__cxx1112basic_stringIcSt11char_traitsIcESaIcEEE
libkodiplatform.so.18.0:_ZN11StringUtils8TokenizeERKNSt7__cxx1112basic_stringIcSt11char_traitsIcESaIcEEERSt6vectorIS5_SaIS5_EES7_
libkodiplatform.so.18.0:_ZN11StringUtils8TokenizeERKNSt7__cxx1112basic_stringIcSt11char_traitsIcESaIcEEES7_
libkodiplatform.so.18.0:_ZN11StringUtils8TrimLeftERNSt7__cxx1112basic_stringIcSt11char_traitsIcESaIcEEE
libkodiplatform.so.18.0:_ZN11StringUtils8TrimLeftERNSt7__cxx1112basic_stringIcSt11char_traitsIcESaIcEEEPKc
libkodiplatform.so.18.0:_ZN11StringUtils9FindWordsEPKcS1_
libkodiplatform.so.18.0:_ZN11StringUtils9IsIntegerERKNSt7__cxx1112basic_stringIcSt11char_traitsIcESaIcEEE
libkodiplatform.so.18.0:_ZN11StringUtils9TrimRightERNSt7__cxx1112basic_stringIcSt11char_traitsIcESaIcEEE
libkodiplatform.so.18.0:_ZN11StringUtils9TrimRightERNSt7__cxx1112basic_stringIcSt11char_traitsIcESaIcEEEPKc
libkodiplatform.so.18.0:_ZN8XMLUtils10GetBooleanEPK9TiXmlNodePKcRb
libkodiplatform.so.18.0:_ZN8XMLUtils10SetBooleanEP9TiXmlNodePKcb
libkodiplatform.so.18.0:_ZN8XMLUtils11GetEncodingEPK13TiXmlDocumentRNSt7__cxx1112basic_stringIcSt11char_traitsIcESaIcEEE
libkodiplatform.so.18.0:_ZN8XMLUtils14SetStringArrayEP9TiXmlNodePKcRKSt6vectorINSt7__cxx1112basic_stringIcSt11char_traitsIcESaIcEEESaISA_EE
libkodiplatform.so.18.0:_ZN8XMLUtils18HasUTF8DeclarationERKNSt7__cxx1112basic_stringIcSt11char_traitsIcESaIcEEE
libkodiplatform.so.18.0:_ZN8XMLUtils6GetHexEPK9TiXmlNodePKcRj
libkodiplatform.so.18.0:_ZN8XMLUtils6GetIntEPK9TiXmlNodePKcRi
libkodiplatform.so.18.0:_ZN8XMLUtils6GetIntEPK9TiXmlNodePKcRiii
libkodiplatform.so.18.0:_ZN8XMLUtils6SetHexEP9TiXmlNodePKcj
libkodiplatform.so.18.0:_ZN8XMLUtils6SetIntEP9TiXmlNodePKci
libkodiplatform.so.18.0:_ZN8XMLUtils7GetLongEPK9TiXmlNodePKcRl
libkodiplatform.so.18.0:_ZN8XMLUtils7GetPathEPK9TiXmlNodePKcRNSt7__cxx1112basic_stringIcSt11char_traitsIcESaIcEEE
libkodiplatform.so.18.0:_ZN8XMLUtils7GetUIntEPK9TiXmlNodePKcRj
libkodiplatform.so.18.0:_ZN8XMLUtils7SetLongEP9TiXmlNodePKcl
libkodiplatform.so.18.0:_ZN8XMLUtils7SetPathEP9TiXmlNodePKcRKNSt7__cxx1112basic_stringIcSt11char_traitsIcESaIcEEE
libkodiplatform.so.18.0:_ZN8XMLUtils8GetFloatEPK9TiXmlNodePKcRf
libkodiplatform.so.18.0:_ZN8XMLUtils8GetFloatEPK9TiXmlNodePKcRfff
libkodiplatform.so.18.0:_ZN8XMLUtils8HasChildEPK9TiXmlNodePKc
libkodiplatform.so.18.0:_ZN8XMLUtils8SetFloatEP9TiXmlNodePKcf
libkodiplatform.so.18.0:_ZN8XMLUtils9GetDoubleEPK9TiXmlNodePKcRd
libkodiplatform.so.18.0:_ZN8XMLUtils9GetStringEPK9TiXmlNodePKcRNSt7__cxx1112basic_stringIcSt11char_traitsIcESaIcEEE
libkodiplatform.so.18.0:_ZN8XMLUtils9SetStringEP9TiXmlNodePKcRKNSt7__cxx1112basic_stringIcSt11char_traitsIcESaIcEEE
